; Function Attrs: mustprogress nounwind uwtable
define internal fastcc noundef range(i32 0, 4) i32 @_ZL25DecodeFPR64CRegisterClassRN4llvm6MCInstEjmPKNS_14MCDisassemblerE(ptr noundef nonnull align 8 dereferenceable(128) %0, i32 noundef %1) unnamed_addr #0 {
  %3 = icmp ugt i32 %1, 7
  br i1 %3, label %17, label %4

4:                                                ; preds = %2
  %5 = add nuw nsw i32 %1, 83
  %.sroa.3.8.insert.ext.i = zext nneg i32 %5 to i64
  %6 = getelementptr inbounds nuw i8, ptr %0, i64 16
  %7 = tail call noundef i64 @_ZNK4llvm15SmallVectorBaseIjE4sizeEv(ptr noundef nonnull align 8 dereferenceable(16) %6) #10
  %8 = add i64 %7, 1
  %9 = tail call noundef i64 @_ZNK4llvm15SmallVectorBaseIjE8capacityEv(ptr noundef nonnull align 8 dereferenceable(16) %6) #10
  %.not.i.i.i.i = icmp ugt i64 %8, %9
  br i1 %.not.i.i.i.i, label %10, label %_ZN4llvm6MCInst10addOperandENS_9MCOperandE.exit

10:                                               ; preds = %4
  %11 = getelementptr inbounds nuw i8, ptr %0, i64 32
  tail call void @_ZN4llvm15SmallVectorBaseIjE8grow_podEPvmm(ptr noundef nonnull align 8 dereferenceable(16) %6, ptr noundef nonnull %11, i64 noundef %8, i64 noundef 16) #10
  br label %_ZN4llvm6MCInst10addOperandENS_9MCOperandE.exit

_ZN4llvm6MCInst10addOperandENS_9MCOperandE.exit:  ; preds = %4, %10
  %12 = load ptr, ptr %6, align 8
  %13 = tail call noundef i64 @_ZNK4llvm15SmallVectorBaseIjE4sizeEv(ptr noundef nonnull align 8 dereferenceable(16) %6) #10
  %14 = getelementptr inbounds %"class.llvm::MCOperand", ptr %12, i64 %13
  store i8 1, ptr %14, align 1
  %.sroa.22.0..sroa_idx.i.i = getelementptr inbounds nuw i8, ptr %14, i64 8
  store i64 %.sroa.3.8.insert.ext.i, ptr %.sroa.22.0..sroa_idx.i.i, align 1
  %15 = tail call noundef i64 @_ZNK4llvm15SmallVectorBaseIjE4sizeEv(ptr noundef nonnull align 8 dereferenceable(16) %6) #10
  %16 = add i64 %15, 1
  tail call void @_ZN4llvm15SmallVectorBaseIjE8set_sizeEm(ptr noundef nonnull align 8 dereferenceable(16) %6, i64 noundef %16) #10
  br label %17

17:                                               ; preds = %2, %_ZN4llvm6MCInst10addOperandENS_9MCOperandE.exit
  %.0 = phi i32 [ 3, %_ZN4llvm6MCInst10addOperandENS_9MCOperandE.exit ], [ 0, %2 ]
  ret i32 %.0
}